; Function Attrs: nounwind uwtable
define internal ptr @aes_128_xts_newctx(ptr readnone captures(none) %0) #0 {
  %2 = tail call i32 @ossl_prov_is_running() #4
  %.not.i = icmp eq i32 %2, 0
  br i1 %.not.i, label %aes_xts_newctx.exit, label %3

3:                                                ; preds = %1
  %4 = tail call noalias ptr @CRYPTO_zalloc(i64 noundef 736, ptr noundef nonnull @.str, i32 noundef 131) #4
  %.not10.i = icmp eq ptr %4, null
  br i1 %.not10.i, label %aes_xts_newctx.exit, label %5

5:                                                ; preds = %3
  %6 = tail call ptr @ossl_prov_cipher_hw_aes_xts(i64 noundef 256) #4
  tail call void @ossl_cipher_generic_initkey(ptr noundef nonnull %4, i64 noundef 256, i64 noundef 8, i64 noundef 128, i32 noundef 65537, i64 noundef 2, ptr noundef %6, ptr noundef null) #4
  br label %aes_xts_newctx.exit

aes_xts_newctx.exit:                              ; preds = %1, %3, %5
  %.0.i = phi ptr [ null, %1 ], [ %4, %5 ], [ null, %3 ]
  ret ptr %.0.i
}